	.file	"randoms.c"
	.text
	.globl	randint
	.type	randint, @function
randint:
.LFB5:
	.cfi_startproc
	pushq	%rbp
	.cfi_def_cfa_offset 16
	.cfi_offset 6, -16
	movq	%rsp, %rbp
	.cfi_def_cfa_register 6
	subq	$16, %rsp
	movl	%edi, -4(%rbp)
	movl	%esi, -8(%rbp)
	call	rand@PLT
	movl	%eax, %edx
	movl	-8(%rbp), %eax
	subl	-4(%rbp), %eax
	leal	1(%rax), %ecx
	movl	%edx, %eax
	cltd
	idivl	%ecx
	movl	-4(%rbp), %eax
	addl	%edx, %eax
	leave
	.cfi_def_cfa 7, 8
	ret
	.cfi_endproc
.LFE5:
	.size	randint, .-randint
	.globl	randreal
	.type	randreal, @function
randreal:
.LFB6:
	.cfi_startproc
	pushq	%rbp
	.cfi_def_cfa_offset 16
	.cfi_offset 6, -16
	movq	%rsp, %rbp
	.cfi_def_cfa_register 6
	subq	$16, %rsp
	movsd	%xmm0, -8(%rbp)
	movsd	%xmm1, -16(%rbp)
	call	rand@PLT
	cvtsi2sd	%eax, %xmm0
	movsd	.LC0(%rip), %xmm1
	divsd	%xmm1, %xmm0
	movapd	%xmm0, %xmm1
	movsd	-16(%rbp), %xmm0
	subsd	-8(%rbp), %xmm0
	mulsd	%xmm1, %xmm0
	addsd	-8(%rbp), %xmm0
	leave
	.cfi_def_cfa 7, 8
	ret
	.cfi_endproc
.LFE6:
	.size	randreal, .-randreal
	.globl	randinit
	.type	randinit, @function
randinit:
.LFB7:
	.cfi_startproc
	pushq	%rbp
	.cfi_def_cfa_offset 16
	.cfi_offset 6, -16
	movq	%rsp, %rbp
	.cfi_def_cfa_register 6
	movl	$0, %edi
	call	time@PLT
	movl	%eax, %edi
	call	srand@PLT
	nop
	popq	%rbp
	.cfi_def_cfa 7, 8
	ret
	.cfi_endproc
.LFE7:
	.size	randinit, .-randinit
	.section	.rodata
	.align 8
.LC0:
	.long	4290772992
	.long	1105199103
	.ident	"GCC: (Ubuntu 7.5.0-3ubuntu1~18.04) 7.5.0"
	.section	.note.GNU-stack,"",@progbits
